target datalayout = "e-m:e-p270:32:32-p271:32:32-p272:64:64-i64:64-i128:128-f80:128-n8:16:32:64-S128"
target triple = "x86_64-pc-linux-gnu"

%struct.hashmanuf = type { i8, [3 x i8], [9 x i8], [64 x i8], [64 x i8] }

; Function Attrs: null_pointer_is_valid sspstrong uwtable
define ptr @get_manuf_name_if_known(ptr noundef %0, i64 noundef %1) #3 {
  %3 = alloca ptr, align 8
  %4 = alloca ptr, align 8
  %5 = alloca i64, align 8
  %6 = alloca ptr, align 8
  %7 = alloca i32, align 4
  %8 = alloca ptr, align 8
  %9 = alloca ptr, align 8
  store ptr %0, ptr %4, align 8
  store i64 %1, ptr %5, align 8
  call void @llvm.lifetime.start.p0(i64 8, ptr %6) #16
  br label %10

10:                                               ; preds = %2
  br label %11

11:                                               ; preds = %10
  br label %12

12:                                               ; preds = %11
  %13 = load ptr, ptr %4, align 8
  %14 = load i64, ptr %5, align 8
  %15 = call ptr @manuf_name_lookup(ptr noundef %13, i64 noundef %14)
  store ptr %15, ptr %6, align 8
  %16 = load ptr, ptr %6, align 8
  %17 = icmp ne ptr %16, null
  br i1 %17, label %18, label %29

18:                                               ; preds = %12
  %19 = load ptr, ptr %6, align 8
  %20 = getelementptr inbounds nuw %struct.hashmanuf, ptr %19, i32 0, i32 0
  %21 = load i8, ptr %20, align 1
  %22 = zext i8 %21 to i32
  %23 = and i32 %22, 2
  %24 = icmp eq i32 %23, 2
  br i1 %24, label %25, label %29

25:                                               ; preds = %18
  %26 = load ptr, ptr %6, align 8
  %27 = getelementptr inbounds nuw %struct.hashmanuf, ptr %26, i32 0, i32 4
  %28 = getelementptr inbounds [64 x i8], ptr %27, i64 0, i64 0
  store ptr %28, ptr %3, align 8
  store i32 1, ptr %7, align 4
  br label %44

29:                                               ; preds = %18, %12
  %30 = load i64, ptr %5, align 8
  %31 = icmp uge i64 %30, 6
  br i1 %31, label %32, label %43

32:                                               ; preds = %29
  call void @llvm.lifetime.start.p0(i64 8, ptr %8) #16
  call void @llvm.lifetime.start.p0(i64 8, ptr %9) #16
  %33 = load ptr, ptr %4, align 8
  %34 = call ptr @ws_manuf_lookup_str(ptr noundef %33, ptr noundef %9)
  store ptr %34, ptr %8, align 8
  %35 = load ptr, ptr %8, align 8
  %36 = icmp ne ptr %35, null
  br i1 %36, label %37, label %39

37:                                               ; preds = %32
  %38 = load ptr, ptr %9, align 8
  store ptr %38, ptr %3, align 8
  store i32 1, ptr %7, align 4
  br label %40

39:                                               ; preds = %32
  store i32 0, ptr %7, align 4
  br label %40

40:                                               ; preds = %39, %37
  call void @llvm.lifetime.end.p0(i64 8, ptr %9) #16
  call void @llvm.lifetime.end.p0(i64 8, ptr %8) #16
  %41 = load i32, ptr %7, align 4
  switch i32 %41, label %44 [
    i32 0, label %42
  ]

42:                                               ; preds = %40
  br label %43

43:                                               ; preds = %42, %29
  store ptr null, ptr %3, align 8
  store i32 1, ptr %7, align 4
  br label %44

44:                                               ; preds = %43, %40, %25
  call void @llvm.lifetime.end.p0(i64 8, ptr %6) #16
  %45 = load ptr, ptr %3, align 8
  ret ptr %45
}