; Function Attrs: null_pointer_is_valid sspstrong uwtable
define ptr @get_manuf_name_if_known(ptr noundef %0, i64 noundef %1) local_unnamed_addr #3 {
  %3 = alloca ptr, align 8
  %4 = tail call fastcc ptr @manuf_name_lookup(ptr noundef %0)
  %.not = icmp eq ptr %4, null
  br i1 %.not, label %10, label %5

5:                                                ; preds = %2
  %6 = load i8, ptr %4, align 1
  %7 = and i8 %6, 2
  %.not11 = icmp eq i8 %7, 0
  br i1 %.not11, label %10, label %8

8:                                                ; preds = %5
  %9 = getelementptr inbounds nuw i8, ptr %4, i64 77
  br label %16

10:                                               ; preds = %5, %2
  %11 = icmp ugt i64 %1, 5
  br i1 %11, label %12, label %15

12:                                               ; preds = %10
  call void @llvm.lifetime.start.p0(i64 8, ptr nonnull %3) #24
  %13 = call ptr @ws_manuf_lookup_str(ptr noundef %0, ptr noundef nonnull %3)
  %.not12 = icmp eq ptr %13, null
  %14 = load ptr, ptr %3, align 8
  call void @llvm.lifetime.end.p0(i64 8, ptr nonnull %3) #24
  br i1 %.not12, label %15, label %16

15:                                               ; preds = %12, %10
  br label %16

16:                                               ; preds = %12, %15, %8
  %.0 = phi ptr [ %9, %8 ], [ null, %15 ], [ %14, %12 ]
  ret ptr %.0
}